target datalayout = "e-m:e-p270:32:32-p271:32:32-p272:64:64-i64:64-i128:128-f80:128-n8:16:32:64-S128"
target triple = "x86_64-pc-linux-gnu"

%struct.lxb_html_tree_res_attr_adjust_t = type { ptr, ptr, i64 }
%struct.lxb_dom_document = type { %struct.lxb_dom_node, i32, i32, ptr, ptr, ptr, ptr, ptr, ptr, ptr, ptr, ptr, ptr, ptr, ptr, ptr, ptr, ptr, ptr, ptr, i8, i8, i8 }
%struct.lxb_dom_node = type { %struct.lxb_dom_event_target, i64, i64, i64, ptr, ptr, ptr, ptr, ptr, ptr, ptr, i32, i64 }
%struct.lxb_dom_event_target = type { ptr }
%struct.lxb_dom_attr = type { %struct.lxb_dom_node, i64, i64, ptr, ptr, ptr, ptr }
%struct.lxb_dom_attr_data_t = type { %struct.lexbor_hash_entry, i64, i64, i8 }
%struct.lexbor_hash_entry = type { %union.anon, i64, ptr }
%union.anon = type { ptr, [16 x i8] }

; Function Attrs: nounwind uwtable
define internal ptr @lexbor_hash_entry_str(ptr noundef %0) #0 {
  %2 = alloca ptr, align 8
  %3 = alloca ptr, align 8
  store ptr %0, ptr %3, align 8
  %4 = load ptr, ptr %3, align 8
  %5 = getelementptr inbounds %struct.lexbor_hash_entry, ptr %4, i32 0, i32 1
  %6 = load i64, ptr %5, align 8
  %7 = icmp ule i64 %6, 16
  br i1 %7, label %8, label %12

8:                                                ; preds = %1
  %9 = load ptr, ptr %3, align 8
  %10 = getelementptr inbounds %struct.lexbor_hash_entry, ptr %9, i32 0, i32 0
  %11 = getelementptr inbounds [17 x i8], ptr %10, i64 0, i64 0
  store ptr %11, ptr %2, align 8
  br label %16

12:                                               ; preds = %1
  %13 = load ptr, ptr %3, align 8
  %14 = getelementptr inbounds %struct.lexbor_hash_entry, ptr %13, i32 0, i32 0
  %15 = load ptr, ptr %14, align 8
  store ptr %15, ptr %2, align 8
  br label %16

16:                                               ; preds = %12, %8
  %17 = load ptr, ptr %2, align 8
  ret ptr %17
}

; Function Attrs: nounwind uwtable
define hidden i32 @lxb_html_tree_adjust_svg_attributes(ptr noundef %0, ptr noundef %1, ptr noundef %2) #0 {
  %4 = alloca i32, align 4
  %5 = alloca ptr, align 8
  %6 = alloca ptr, align 8
  %7 = alloca ptr, align 8
  %8 = alloca ptr, align 8
  %9 = alloca ptr, align 8
  %10 = alloca ptr, align 8
  %11 = alloca i64, align 8
  %12 = alloca i64, align 8
  store ptr %0, ptr %5, align 8
  store ptr %1, ptr %6, align 8
  store ptr %2, ptr %7, align 8
  store i64 58, ptr %11, align 8
  %13 = load ptr, ptr %6, align 8
  %14 = getelementptr inbounds %struct.lxb_dom_attr, ptr %13, i32 0, i32 0
  %15 = getelementptr inbounds %struct.lxb_dom_node, ptr %14, i32 0, i32 4
  %16 = load ptr, ptr %15, align 8
  %17 = getelementptr inbounds %struct.lxb_dom_document, ptr %16, i32 0, i32 15
  %18 = load ptr, ptr %17, align 8
  store ptr %18, ptr %8, align 8
  %19 = load ptr, ptr %8, align 8
  %20 = load ptr, ptr %6, align 8
  %21 = getelementptr inbounds %struct.lxb_dom_attr, ptr %20, i32 0, i32 0
  %22 = getelementptr inbounds %struct.lxb_dom_node, ptr %21, i32 0, i32 1
  %23 = load i64, ptr %22, align 8
  %24 = call ptr @lxb_dom_attr_data_by_id(ptr noundef %19, i64 noundef %23)
  store ptr %24, ptr %9, align 8
  store i64 0, ptr %12, align 8
  br label %25

25:                                               ; preds = %67, %3
  %26 = load i64, ptr %12, align 8
  %27 = load i64, ptr %11, align 8
  %28 = icmp ult i64 %26, %27
  br i1 %28, label %29, label %70

29:                                               ; preds = %25
  %30 = load i64, ptr %12, align 8
  %31 = getelementptr inbounds [58 x %struct.lxb_html_tree_res_attr_adjust_t], ptr @lxb_html_tree_res_attr_adjust_svg_map, i64 0, i64 %30
  store ptr %31, ptr %10, align 8
  %32 = load ptr, ptr %9, align 8
  %33 = getelementptr inbounds %struct.lxb_dom_attr_data_t, ptr %32, i32 0, i32 0
  %34 = getelementptr inbounds %struct.lexbor_hash_entry, ptr %33, i32 0, i32 1
  %35 = load i64, ptr %34, align 8
  %36 = load ptr, ptr %10, align 8
  %37 = getelementptr inbounds %struct.lxb_html_tree_res_attr_adjust_t, ptr %36, i32 0, i32 2
  %38 = load i64, ptr %37, align 8
  %39 = icmp eq i64 %35, %38
  br i1 %39, label %40, label %66

40:                                               ; preds = %29
  %41 = load ptr, ptr %9, align 8
  %42 = getelementptr inbounds %struct.lxb_dom_attr_data_t, ptr %41, i32 0, i32 0
  %43 = call ptr @lexbor_hash_entry_str(ptr noundef %42)
  %44 = load ptr, ptr %10, align 8
  %45 = getelementptr inbounds %struct.lxb_html_tree_res_attr_adjust_t, ptr %44, i32 0, i32 0
  %46 = load ptr, ptr %45, align 8
  %47 = call zeroext i1 @lexbor_str_data_cmp(ptr noundef %43, ptr noundef %46)
  br i1 %47, label %48, label %66

48:                                               ; preds = %40
  %49 = load ptr, ptr %8, align 8
  %50 = load ptr, ptr %10, align 8
  %51 = getelementptr inbounds %struct.lxb_html_tree_res_attr_adjust_t, ptr %50, i32 0, i32 1
  %52 = load ptr, ptr %51, align 8
  %53 = load ptr, ptr %10, align 8
  %54 = getelementptr inbounds %struct.lxb_html_tree_res_attr_adjust_t, ptr %53, i32 0, i32 2
  %55 = load i64, ptr %54, align 8
  %56 = call ptr @lxb_dom_attr_qualified_name_append(ptr noundef %49, ptr noundef %52, i64 noundef %55)
  store ptr %56, ptr %9, align 8
  %57 = load ptr, ptr %9, align 8
  %58 = icmp eq ptr %57, null
  br i1 %58, label %59, label %60

59:                                               ; preds = %48
  store i32 1, ptr %4, align 4
  br label %71

60:                                               ; preds = %48
  %61 = load ptr, ptr %9, align 8
  %62 = getelementptr inbounds %struct.lxb_dom_attr_data_t, ptr %61, i32 0, i32 1
  %63 = load i64, ptr %62, align 8
  %64 = load ptr, ptr %6, align 8
  %65 = getelementptr inbounds %struct.lxb_dom_attr, ptr %64, i32 0, i32 2
  store i64 %63, ptr %65, align 8
  store i32 0, ptr %4, align 4
  br label %71

66:                                               ; preds = %40, %29
  br label %67

67:                                               ; preds = %66
  %68 = load i64, ptr %12, align 8
  %69 = add i64 %68, 1
  store i64 %69, ptr %12, align 8
  br label %25

70:                                               ; preds = %25
  store i32 0, ptr %4, align 4
  br label %71

71:                                               ; preds = %70, %60, %59
  %72 = load i32, ptr %4, align 4
  ret i32 %72
}

; Function Attrs: nounwind uwtable
define hidden i32 @lxb_html_tree_adjust_attributes_svg(ptr noundef %0, ptr noundef %1, ptr noundef %2) #0 {
  %4 = alloca i32, align 4
  %5 = alloca ptr, align 8
  %6 = alloca ptr, align 8
  %7 = alloca ptr, align 8
  %8 = alloca i32, align 4
  store ptr %0, ptr %5, align 8
  store ptr %1, ptr %6, align 8
  store ptr %2, ptr %7, align 8
  %9 = load ptr, ptr %5, align 8
  %10 = load ptr, ptr %6, align 8
  %11 = load ptr, ptr %7, align 8
  %12 = call i32 @lxb_html_tree_adjust_svg_attributes(ptr noundef %9, ptr noundef %10, ptr noundef %11)
  store i32 %12, ptr %8, align 4
  %13 = load i32, ptr %8, align 4
  %14 = icmp ne i32 %13, 0
  br i1 %14, label %15, label %17

15:                                               ; preds = %3
  %16 = load i32, ptr %8, align 4
  store i32 %16, ptr %4, align 4
  br label %22

17:                                               ; preds = %3
  %18 = load ptr, ptr %5, align 8
  %19 = load ptr, ptr %6, align 8
  %20 = load ptr, ptr %7, align 8
  %21 = call i32 @lxb_html_tree_adjust_foreign_attributes(ptr noundef %18, ptr noundef %19, ptr noundef %20)
  store i32 %21, ptr %4, align 4
  br label %22

22:                                               ; preds = %17, %15
  %23 = load i32, ptr %4, align 4
  ret i32 %23
}